; Function Attrs: mustprogress uwtable
define noundef double @_ZNK8QuantLib15LinearTsrPricer13singularTermsENS_6Option4TypeEd(ptr nocapture noundef nonnull readonly align 8 dereferenceable(360) %this, i32 noundef %type, double noundef %strike) local_unnamed_addr #7 align 2 {
entry:
  %swapRateValue_ = getelementptr inbounds nuw i8, ptr %this, i64 176
  %0 = load double, ptr %swapRateValue_, align 8, !tbaa !91
  %a_ = getelementptr inbounds nuw i8, ptr %this, i64 32
  %1 = load double, ptr %a_, align 8, !tbaa !105
  %b_ = getelementptr inbounds nuw i8, ptr %this, i64 40
  %2 = load double, ptr %b_, align 8, !tbaa !106
  %smileSection_ = getelementptr inbounds nuw i8, ptr %this, i64 240
  %3 = load ptr, ptr %smileSection_, align 8, !tbaa !107
  %cmp.not.i = icmp eq ptr %3, null
  br i1 %cmp.not.i, label %cond.false.i, label %_ZNK5boost10shared_ptrIN8QuantLib12SmileSectionEEptEv.exit, !prof !58

cond.false.i:                                     ; preds = %entry
  tail call void @_ZN5boost16assertion_failedEPKcS1_S1_l(ptr noundef nonnull @.str.15, ptr noundef nonnull @__PRETTY_FUNCTION__._ZNK5boost10shared_ptrIN8QuantLib12SmileSectionEEptEv, ptr noundef nonnull @.str.16, i64 noundef 784)
  %.pre.i = load ptr, ptr %smileSection_, align 8, !tbaa !107
  %.pre = load double, ptr %swapRateValue_, align 8, !tbaa !91
  br label %_ZNK5boost10shared_ptrIN8QuantLib12SmileSectionEEptEv.exit

_ZNK5boost10shared_ptrIN8QuantLib12SmileSectionEEptEv.exit: ; preds = %entry, %cond.false.i
  %4 = phi double [ %0, %entry ], [ %.pre, %cond.false.i ]
  %5 = phi ptr [ %3, %entry ], [ %.pre.i, %cond.false.i ]
  %6 = tail call double @llvm.fmuladd.f64(double %1, double %strike, double %2)
  %cmp = icmp eq i32 %type, 1
  %sub = fsub double %0, %strike
  %7 = fneg double %sub
  %mul = select i1 %cmp, double %sub, double %7
  %cmp.i = fcmp olt double %mul, 0.000000e+00
  %.sroa.speculated = select i1 %cmp.i, double 0.000000e+00, double %mul
  %8 = tail call double @llvm.fmuladd.f64(double %1, double %0, double %2)
  %mul5 = fmul double %8, %.sroa.speculated
  %cmp11 = fcmp olt double %strike, %4
  %cond12 = select i1 %cmp11, i32 -1, i32 1
  %vtable = load ptr, ptr %5, align 8, !tbaa !35
  %vfn = getelementptr inbounds i8, ptr %vtable, i64 96
  %9 = load ptr, ptr %vfn, align 8
  %call13 = tail call noundef double %9(ptr noundef nonnull align 8 dereferenceable(72) %5, double noundef %strike, i32 noundef %cond12, double noundef 1.000000e+00)
  %mul14 = fmul double %6, %call13
  %add = fadd double %mul5, %mul14
  ret double %add
}